; ModuleID = '33/981.c'
source_filename = "33/981.c"
target datalayout = "e-m:e-p270:32:32-p271:32:32-p272:64:64-i64:64-f80:128-n8:16:32:64-S128"
target triple = "x86_64-pc-linux-gnu"

@.str = private unnamed_addr constant [3 x i8] c"%d\00", align 1
@.str.1 = private unnamed_addr constant [3 x i8] c"%s\00", align 1
@.str.2 = private unnamed_addr constant [3 x i8] c"%c\00", align 1
@.str.3 = private unnamed_addr constant [2 x i8] c"\0A\00", align 1

; Function Attrs: noinline nounwind uwtable
define dso_local i32 @main() #0 {
  %1 = alloca i32, align 4
  %2 = alloca i32, align 4
  %3 = alloca i32, align 4
  %4 = alloca i32, align 4
  %5 = alloca i32, align 4
  %6 = alloca [500 x i8], align 16
  %7 = alloca [500 x i8], align 16
  store i32 0, i32* %1, align 4
  %8 = call i32 (i8*, ...) @__isoc99_scanf(i8* getelementptr inbounds ([3 x i8], [3 x i8]* @.str, i64 0, i64 0), i32* %2)
  store i32 1, i32* %3, align 4
  br label %9

9:                                                ; preds = %101, %0
  %10 = load i32, i32* %3, align 4
  %11 = load i32, i32* %2, align 4
  %12 = icmp sle i32 %10, %11
  br i1 %12, label %13, label %104

13:                                               ; preds = %9
  %14 = getelementptr inbounds [500 x i8], [500 x i8]* %6, i64 0, i64 0
  %15 = call i32 (i8*, ...) @__isoc99_scanf(i8* getelementptr inbounds ([3 x i8], [3 x i8]* @.str.1, i64 0, i64 0), i8* %14)
  store i32 1, i32* %4, align 4
  br label %16

16:                                               ; preds = %78, %13
  %17 = load i32, i32* %4, align 4
  %18 = sext i32 %17 to i64
  %19 = getelementptr inbounds [500 x i8], [500 x i8]* %6, i64 0, i64 0
  %20 = call i64 @strlen(i8* %19) #3
  %21 = icmp ule i64 %18, %20
  br i1 %21, label %22, label %81

22:                                               ; preds = %16
  %23 = load i32, i32* %4, align 4
  %24 = sub nsw i32 %23, 1
  %25 = sext i32 %24 to i64
  %26 = getelementptr inbounds [500 x i8], [500 x i8]* %6, i64 0, i64 %25
  %27 = load i8, i8* %26, align 1
  %28 = sext i8 %27 to i32
  %29 = icmp eq i32 %28, 65
  br i1 %29, label %30, label %35

30:                                               ; preds = %22
  %31 = load i32, i32* %4, align 4
  %32 = sub nsw i32 %31, 1
  %33 = sext i32 %32 to i64
  %34 = getelementptr inbounds [500 x i8], [500 x i8]* %7, i64 0, i64 %33
  store i8 84, i8* %34, align 1
  br label %77

35:                                               ; preds = %22
  %36 = load i32, i32* %4, align 4
  %37 = sub nsw i32 %36, 1
  %38 = sext i32 %37 to i64
  %39 = getelementptr inbounds [500 x i8], [500 x i8]* %6, i64 0, i64 %38
  %40 = load i8, i8* %39, align 1
  %41 = sext i8 %40 to i32
  %42 = icmp eq i32 %41, 84
  br i1 %42, label %43, label %48

43:                                               ; preds = %35
  %44 = load i32, i32* %4, align 4
  %45 = sub nsw i32 %44, 1
  %46 = sext i32 %45 to i64
  %47 = getelementptr inbounds [500 x i8], [500 x i8]* %7, i64 0, i64 %46
  store i8 65, i8* %47, align 1
  br label %76

48:                                               ; preds = %35
  %49 = load i32, i32* %4, align 4
  %50 = sub nsw i32 %49, 1
  %51 = sext i32 %50 to i64
  %52 = getelementptr inbounds [500 x i8], [500 x i8]* %6, i64 0, i64 %51
  %53 = load i8, i8* %52, align 1
  %54 = sext i8 %53 to i32
  %55 = icmp eq i32 %54, 67
  br i1 %55, label %56, label %61

56:                                               ; preds = %48
  %57 = load i32, i32* %4, align 4
  %58 = sub nsw i32 %57, 1
  %59 = sext i32 %58 to i64
  %60 = getelementptr inbounds [500 x i8], [500 x i8]* %7, i64 0, i64 %59
  store i8 71, i8* %60, align 1
  br label %75

61:                                               ; preds = %48
  %62 = load i32, i32* %4, align 4
  %63 = sub nsw i32 %62, 1
  %64 = sext i32 %63 to i64
  %65 = getelementptr inbounds [500 x i8], [500 x i8]* %6, i64 0, i64 %64
  %66 = load i8, i8* %65, align 1
  %67 = sext i8 %66 to i32
  %68 = icmp eq i32 %67, 71
  br i1 %68, label %69, label %74

69:                                               ; preds = %61
  %70 = load i32, i32* %4, align 4
  %71 = sub nsw i32 %70, 1
  %72 = sext i32 %71 to i64
  %73 = getelementptr inbounds [500 x i8], [500 x i8]* %7, i64 0, i64 %72
  store i8 67, i8* %73, align 1
  br label %74

74:                                               ; preds = %69, %61
  br label %75

75:                                               ; preds = %74, %56
  br label %76

76:                                               ; preds = %75, %43
  br label %77

77:                                               ; preds = %76, %30
  br label %78

78:                                               ; preds = %77
  %79 = load i32, i32* %4, align 4
  %80 = add nsw i32 %79, 1
  store i32 %80, i32* %4, align 4
  br label %16

81:                                               ; preds = %16
  store i32 1, i32* %5, align 4
  br label %82

82:                                               ; preds = %96, %81
  %83 = load i32, i32* %5, align 4
  %84 = sext i32 %83 to i64
  %85 = getelementptr inbounds [500 x i8], [500 x i8]* %6, i64 0, i64 0
  %86 = call i64 @strlen(i8* %85) #3
  %87 = icmp ule i64 %84, %86
  br i1 %87, label %88, label %99

88:                                               ; preds = %82
  %89 = load i32, i32* %5, align 4
  %90 = sub nsw i32 %89, 1
  %91 = sext i32 %90 to i64
  %92 = getelementptr inbounds [500 x i8], [500 x i8]* %7, i64 0, i64 %91
  %93 = load i8, i8* %92, align 1
  %94 = sext i8 %93 to i32
  %95 = call i32 (i8*, ...) @printf(i8* getelementptr inbounds ([3 x i8], [3 x i8]* @.str.2, i64 0, i64 0), i32 %94)
  br label %96

96:                                               ; preds = %88
  %97 = load i32, i32* %5, align 4
  %98 = add nsw i32 %97, 1
  store i32 %98, i32* %5, align 4
  br label %82

99:                                               ; preds = %82
  %100 = call i32 (i8*, ...) @printf(i8* getelementptr inbounds ([2 x i8], [2 x i8]* @.str.3, i64 0, i64 0))
  br label %101

101:                                              ; preds = %99
  %102 = load i32, i32* %3, align 4
  %103 = add nsw i32 %102, 1
  store i32 %103, i32* %3, align 4
  br label %9

104:                                              ; preds = %9
  ret i32 0
}

declare dso_local i32 @__isoc99_scanf(i8*, ...) #1

; Function Attrs: nounwind readonly
declare dso_local i64 @strlen(i8*) #2

declare dso_local i32 @printf(i8*, ...) #1


!llvm.module.flags = !{!0}
!llvm.ident = !{!1}

!0 = !{i32 1, !"wchar_size", i32 4}
!1 = !{!"clang version 10.0.0-4ubuntu1 "}
